target datalayout = "e-m:e-p270:32:32-p271:32:32-p272:64:64-i64:64-i128:128-f80:128-n8:16:32:64-S128"
target triple = "x86_64-unknown-linux-gnu"

%"class.std::__cxx11::basic_string" = type { %"struct.std::__cxx11::basic_string<char>::_Alloc_hider", i64, %union.anon }
%"struct.std::__cxx11::basic_string<char>::_Alloc_hider" = type { ptr }
%union.anon = type { i64, [8 x i8] }
%"class.rocksdb::Slice" = type { ptr, i64 }

; Function Attrs: mustprogress nounwind uwtable
define noundef signext i8 @_ZN7rocksdb5toHexEh(i8 noundef zeroext %v) #3 {
entry:
  %retval = alloca i8, align 1
  %v.addr = alloca i8, align 1
  store i8 %v, ptr %v.addr, align 1
  %0 = load i8, ptr %v.addr, align 1
  %conv = zext i8 %0 to i32
  %cmp = icmp sle i32 %conv, 9
  br i1 %cmp, label %if.then, label %if.end

if.then:                                          ; preds = %entry
  %1 = load i8, ptr %v.addr, align 1
  %conv1 = zext i8 %1 to i32
  %add = add nsw i32 48, %conv1
  %conv2 = trunc i32 %add to i8
  store i8 %conv2, ptr %retval, align 1
  br label %return

if.end:                                           ; preds = %entry
  %2 = load i8, ptr %v.addr, align 1
  %conv3 = zext i8 %2 to i32
  %add4 = add nsw i32 65, %conv3
  %sub = sub nsw i32 %add4, 10
  %conv5 = trunc i32 %sub to i8
  store i8 %conv5, ptr %retval, align 1
  br label %return

return:                                           ; preds = %if.end, %if.then
  %3 = load i8, ptr %retval, align 1
  ret i8 %3
}

; Function Attrs: mustprogress uwtable
define void @_ZNK7rocksdb5Slice8ToStringB5cxx11Eb(ptr noalias sret(%"class.std::__cxx11::basic_string") align 8 %agg.result, ptr noundef nonnull align 8 dereferenceable(16) %this, i1 noundef zeroext %hex) #0 align 2 personality ptr @__gxx_personality_v0 {
entry:
  %result.ptr = alloca ptr, align 8
  %this.addr = alloca ptr, align 8
  %hex.addr = alloca i8, align 1
  %nrvo = alloca i1, align 1
  %exn.slot = alloca ptr, align 8
  %ehselector.slot = alloca i32, align 4
  %i = alloca i64, align 8
  %c = alloca i8, align 1
  %cleanup.dest.slot = alloca i32, align 4
  store ptr %agg.result, ptr %result.ptr, align 8
  store ptr %this, ptr %this.addr, align 8
  %frombool = zext i1 %hex to i8
  store i8 %frombool, ptr %hex.addr, align 1
  %this1 = load ptr, ptr %this.addr, align 8
  store i1 false, ptr %nrvo, align 1
  call void @_ZNSt7__cxx1112basic_stringIcSt11char_traitsIcESaIcEEC1Ev(ptr noundef nonnull align 8 dereferenceable(32) %agg.result) #14
  %0 = load i8, ptr %hex.addr, align 1
  %tobool = trunc i8 %0 to i1
  br i1 %tobool, label %if.then, label %if.else

if.then:                                          ; preds = %entry
  %size_ = getelementptr inbounds %"class.rocksdb::Slice", ptr %this1, i32 0, i32 1
  %1 = load i64, ptr %size_, align 8
  %mul = mul i64 2, %1
  invoke void @_ZNSt7__cxx1112basic_stringIcSt11char_traitsIcESaIcEE7reserveEm(ptr noundef nonnull align 8 dereferenceable(32) %agg.result, i64 noundef %mul)
          to label %invoke.cont unwind label %lpad

invoke.cont:                                      ; preds = %if.then
  store i64 0, ptr %i, align 8
  br label %for.cond

for.cond:                                         ; preds = %for.inc, %invoke.cont
  %2 = load i64, ptr %i, align 8
  %size_2 = getelementptr inbounds %"class.rocksdb::Slice", ptr %this1, i32 0, i32 1
  %3 = load i64, ptr %size_2, align 8
  %cmp = icmp ult i64 %2, %3
  br i1 %cmp, label %for.body, label %for.end

for.body:                                         ; preds = %for.cond
  %data_ = getelementptr inbounds %"class.rocksdb::Slice", ptr %this1, i32 0, i32 0
  %4 = load ptr, ptr %data_, align 8
  %5 = load i64, ptr %i, align 8
  %arrayidx = getelementptr inbounds i8, ptr %4, i64 %5
  %6 = load i8, ptr %arrayidx, align 1
  store i8 %6, ptr %c, align 1
  %7 = load i8, ptr %c, align 1
  %conv = zext i8 %7 to i32
  %shr = ashr i32 %conv, 4
  %conv3 = trunc i32 %shr to i8
  %call = call noundef signext i8 @_ZN7rocksdb5toHexEh(i8 noundef zeroext %conv3)
  invoke void @_ZNSt7__cxx1112basic_stringIcSt11char_traitsIcESaIcEE9push_backEc(ptr noundef nonnull align 8 dereferenceable(32) %agg.result, i8 noundef signext %call)
          to label %invoke.cont4 unwind label %lpad

invoke.cont4:                                     ; preds = %for.body
  %8 = load i8, ptr %c, align 1
  %conv5 = zext i8 %8 to i32
  %and = and i32 %conv5, 15
  %conv6 = trunc i32 %and to i8
  %call7 = call noundef signext i8 @_ZN7rocksdb5toHexEh(i8 noundef zeroext %conv6)
  invoke void @_ZNSt7__cxx1112basic_stringIcSt11char_traitsIcESaIcEE9push_backEc(ptr noundef nonnull align 8 dereferenceable(32) %agg.result, i8 noundef signext %call7)
          to label %invoke.cont8 unwind label %lpad

invoke.cont8:                                     ; preds = %invoke.cont4
  br label %for.inc

for.inc:                                          ; preds = %invoke.cont8
  %9 = load i64, ptr %i, align 8
  %inc = add i64 %9, 1
  store i64 %inc, ptr %i, align 8
  br label %for.cond, !llvm.loop !7

lpad:                                             ; preds = %if.else, %invoke.cont4, %for.body, %if.then
  %10 = landingpad { ptr, i32 }
          cleanup
  %11 = extractvalue { ptr, i32 } %10, 0
  store ptr %11, ptr %exn.slot, align 8
  %12 = extractvalue { ptr, i32 } %10, 1
  store i32 %12, ptr %ehselector.slot, align 4
  call void @_ZNSt7__cxx1112basic_stringIcSt11char_traitsIcESaIcEED1Ev(ptr noundef nonnull align 8 dereferenceable(32) %agg.result) #14
  br label %eh.resume

for.end:                                          ; preds = %for.cond
  store i1 true, ptr %nrvo, align 1
  store i32 1, ptr %cleanup.dest.slot, align 4
  br label %cleanup

if.else:                                          ; preds = %entry
  %data_9 = getelementptr inbounds %"class.rocksdb::Slice", ptr %this1, i32 0, i32 0
  %13 = load ptr, ptr %data_9, align 8
  %size_10 = getelementptr inbounds %"class.rocksdb::Slice", ptr %this1, i32 0, i32 1
  %14 = load i64, ptr %size_10, align 8
  %call12 = invoke noundef nonnull align 8 dereferenceable(32) ptr @_ZNSt7__cxx1112basic_stringIcSt11char_traitsIcESaIcEE6assignEPKcm(ptr noundef nonnull align 8 dereferenceable(32) %agg.result, ptr noundef %13, i64 noundef %14)
          to label %invoke.cont11 unwind label %lpad

invoke.cont11:                                    ; preds = %if.else
  store i1 true, ptr %nrvo, align 1
  store i32 1, ptr %cleanup.dest.slot, align 4
  br label %cleanup

cleanup:                                          ; preds = %invoke.cont11, %for.end
  %nrvo.val = load i1, ptr %nrvo, align 1
  br i1 %nrvo.val, label %nrvo.skipdtor, label %nrvo.unused

nrvo.unused:                                      ; preds = %cleanup
  call void @_ZNSt7__cxx1112basic_stringIcSt11char_traitsIcESaIcEED1Ev(ptr noundef nonnull align 8 dereferenceable(32) %agg.result) #14
  br label %nrvo.skipdtor

nrvo.skipdtor:                                    ; preds = %nrvo.unused, %cleanup
  ret void

eh.resume:                                        ; preds = %lpad
  %exn = load ptr, ptr %exn.slot, align 8
  %sel = load i32, ptr %ehselector.slot, align 4
  %lpad.val = insertvalue { ptr, i32 } poison, ptr %exn, 0
  %lpad.val13 = insertvalue { ptr, i32 } %lpad.val, i32 %sel, 1
  resume { ptr, i32 } %lpad.val13
}