; Function Attrs: mustprogress uwtable
define void @_ZNK7rocksdb5Slice8ToStringB5cxx11Eb(ptr noalias nonnull sret(%"class.std::__cxx11::basic_string") align 8 %agg.result, ptr nocapture noundef nonnull readonly align 8 dereferenceable(16) %this, i1 noundef zeroext %hex) local_unnamed_addr #0 align 2 personality ptr @__gxx_personality_v0 {
entry:
  tail call void @_ZNSt7__cxx1112basic_stringIcSt11char_traitsIcESaIcEEC1Ev(ptr noundef nonnull align 8 dereferenceable(32) %agg.result) #21
  br i1 %hex, label %if.then, label %if.else

if.then:                                          ; preds = %entry
  %size_ = getelementptr inbounds i8, ptr %this, i64 8
  %0 = load i64, ptr %size_, align 8
  %mul = shl i64 %0, 1
  invoke void @_ZNSt7__cxx1112basic_stringIcSt11char_traitsIcESaIcEE7reserveEm(ptr noundef nonnull align 8 dereferenceable(32) %agg.result, i64 noundef %mul)
          to label %for.cond.preheader unwind label %lpad.loopexit.split-lp

for.cond.preheader:                               ; preds = %if.then
  %1 = load i64, ptr %size_, align 8
  %cmp9.not = icmp eq i64 %1, 0
  br i1 %cmp9.not, label %nrvo.skipdtor, label %for.body

for.body:                                         ; preds = %for.cond.preheader, %for.inc
  %i.010 = phi i64 [ %inc, %for.inc ], [ 0, %for.cond.preheader ]
  %2 = load ptr, ptr %this, align 8
  %arrayidx = getelementptr inbounds i8, ptr %2, i64 %i.010
  %3 = load i8, ptr %arrayidx, align 1
  %shr = lshr i8 %3, 4
  %cmp.i = icmp ult i8 %3, -96
  %4 = or disjoint i8 %shr, 48
  %sub.i = add nuw nsw i8 %shr, 55
  %retval.0.i = select i1 %cmp.i, i8 %4, i8 %sub.i
  invoke void @_ZNSt7__cxx1112basic_stringIcSt11char_traitsIcESaIcEE9push_backEc(ptr noundef nonnull align 8 dereferenceable(32) %agg.result, i8 noundef signext %retval.0.i)
          to label %invoke.cont4 unwind label %lpad.loopexit

invoke.cont4:                                     ; preds = %for.body
  %5 = and i8 %3, 15
  %cmp.i4 = icmp ult i8 %5, 10
  %6 = or disjoint i8 %5, 48
  %sub.i5 = add nuw nsw i8 %5, 55
  %retval.0.i6 = select i1 %cmp.i4, i8 %6, i8 %sub.i5
  invoke void @_ZNSt7__cxx1112basic_stringIcSt11char_traitsIcESaIcEE9push_backEc(ptr noundef nonnull align 8 dereferenceable(32) %agg.result, i8 noundef signext %retval.0.i6)
          to label %for.inc unwind label %lpad.loopexit

for.inc:                                          ; preds = %invoke.cont4
  %inc = add nuw i64 %i.010, 1
  %7 = load i64, ptr %size_, align 8
  %cmp = icmp ult i64 %inc, %7
  br i1 %cmp, label %for.body, label %nrvo.skipdtor, !llvm.loop !20

lpad.loopexit:                                    ; preds = %for.body, %invoke.cont4
  %lpad.loopexit7 = landingpad { ptr, i32 }
          cleanup
  br label %lpad

lpad.loopexit.split-lp:                           ; preds = %if.then, %if.else
  %lpad.loopexit.split-lp8 = landingpad { ptr, i32 }
          cleanup
  br label %lpad

lpad:                                             ; preds = %lpad.loopexit.split-lp, %lpad.loopexit
  %lpad.phi = phi { ptr, i32 } [ %lpad.loopexit7, %lpad.loopexit ], [ %lpad.loopexit.split-lp8, %lpad.loopexit.split-lp ]
  tail call void @_ZNSt7__cxx1112basic_stringIcSt11char_traitsIcESaIcEED1Ev(ptr noundef nonnull align 8 dereferenceable(32) %agg.result) #21
  resume { ptr, i32 } %lpad.phi

if.else:                                          ; preds = %entry
  %8 = load ptr, ptr %this, align 8
  %size_10 = getelementptr inbounds i8, ptr %this, i64 8
  %9 = load i64, ptr %size_10, align 8
  %call12 = invoke noundef nonnull align 8 dereferenceable(32) ptr @_ZNSt7__cxx1112basic_stringIcSt11char_traitsIcESaIcEE6assignEPKcm(ptr noundef nonnull align 8 dereferenceable(32) %agg.result, ptr noundef %8, i64 noundef %9)
          to label %nrvo.skipdtor unwind label %lpad.loopexit.split-lp

nrvo.skipdtor:                                    ; preds = %for.inc, %for.cond.preheader, %if.else
  ret void
}